target datalayout = "e-m:e-p270:32:32-p271:32:32-p272:64:64-i64:64-i128:128-f80:128-n8:16:32:64-S128"
target triple = "x86_64-pc-linux-gnu"

%struct.HTAB = type { ptr, ptr, ptr, ptr, ptr, ptr, ptr, ptr, i8, i8, i8, i64, i64, i32 }

@.str.4 = private unnamed_addr constant [8 x i8] c"destroy\00", align 1

; Function Attrs: nounwind uwtable
define dso_local void @hash_stats(ptr noundef %0, ptr noundef %1) #0 {
  %3 = alloca ptr, align 8
  %4 = alloca ptr, align 8
  store ptr %0, ptr %3, align 8
  store ptr %1, ptr %4, align 8
  ret void
}

; Function Attrs: nounwind uwtable
define dso_local void @hash_destroy(ptr noundef %0) #0 {
  %2 = alloca ptr, align 8
  store ptr %0, ptr %2, align 8
  %3 = load ptr, ptr %2, align 8
  %4 = icmp ne ptr %3, null
  br i1 %4, label %5, label %10

5:                                                ; preds = %1
  %6 = load ptr, ptr %2, align 8
  call void @hash_stats(ptr noundef @.str.4, ptr noundef %6)
  %7 = load ptr, ptr %2, align 8
  %8 = getelementptr inbounds nuw %struct.HTAB, ptr %7, i32 0, i32 6
  %9 = load ptr, ptr %8, align 8
  call void @MemoryContextDelete(ptr noundef %9)
  br label %10

10:                                               ; preds = %5, %1
  ret void
}