; Function Attrs: nounwind uwtable
define dso_local void @hash_destroy(ptr noundef readonly captures(address_is_null) %0) local_unnamed_addr #0 {
  %.not = icmp eq ptr %0, null
  br i1 %.not, label %5, label %2

2:                                                ; preds = %1
  %3 = getelementptr inbounds nuw i8, ptr %0, i64 48
  %4 = load ptr, ptr %3, align 8
  tail call void @MemoryContextDelete(ptr noundef %4) #17
  br label %5

5:                                                ; preds = %2, %1
  ret void
}